target datalayout = "e-m:e-p270:32:32-p271:32:32-p272:64:64-i64:64-i128:128-f80:128-n8:16:32:64-S128"
target triple = "x86_64-pc-linux-gnu"

%struct.Node = type { i32 }
%struct.Expr = type { i32 }
%struct.Aggref = type { %struct.Expr, i32, i32, i32, i32, i32, ptr, ptr, ptr, ptr, ptr, ptr, i8, i8, i8, i8, i32, i32, i32, i32, i32 }
%struct.WindowFunc = type { %struct.Expr, i32, i32, i32, i32, ptr, ptr, ptr, i32, i8, i8, i32 }
%struct.FuncExpr = type { %struct.Expr, i32, i32, i8, i8, i32, i32, i32, ptr, i32 }
%struct.OpExpr = type { %struct.Expr, i32, i32, i32, i8, i32, i32, ptr, i32 }
%struct.MinMaxExpr = type { %struct.Expr, i32, i32, i32, i32, ptr, i32 }
%struct.ScalarArrayOpExpr = type { %struct.Expr, i32, i32, i32, i32, i8, i32, ptr, i32 }

; Function Attrs: nounwind uwtable
define dso_local i32 @exprInputCollation(ptr noundef %0) #0 {
  %2 = alloca i32, align 4
  %3 = alloca ptr, align 8
  %4 = alloca i32, align 4
  %5 = alloca i32, align 4
  store ptr %0, ptr %3, align 8
  call void @llvm.lifetime.start.p0(i64 4, ptr %4) #7
  %6 = load ptr, ptr %3, align 8
  %7 = icmp ne ptr %6, null
  br i1 %7, label %9, label %8

8:                                                ; preds = %1
  store i32 0, ptr %2, align 4
  store i32 1, ptr %5, align 4
  br label %48

9:                                                ; preds = %1
  %10 = load ptr, ptr %3, align 8
  %11 = getelementptr inbounds nuw %struct.Node, ptr %10, i32 0, i32 0
  %12 = load i32, ptr %11, align 4
  switch i32 %12, label %45 [
    i32 9, label %13
    i32 11, label %17
    i32 15, label %21
    i32 17, label %25
    i32 18, label %29
    i32 19, label %33
    i32 20, label %37
    i32 39, label %41
  ]

13:                                               ; preds = %9
  %14 = load ptr, ptr %3, align 8
  %15 = getelementptr inbounds nuw %struct.Aggref, ptr %14, i32 0, i32 4
  %16 = load i32, ptr %15, align 8
  store i32 %16, ptr %4, align 4
  br label %46

17:                                               ; preds = %9
  %18 = load ptr, ptr %3, align 8
  %19 = getelementptr inbounds nuw %struct.WindowFunc, ptr %18, i32 0, i32 4
  %20 = load i32, ptr %19, align 8
  store i32 %20, ptr %4, align 4
  br label %46

21:                                               ; preds = %9
  %22 = load ptr, ptr %3, align 8
  %23 = getelementptr inbounds nuw %struct.FuncExpr, ptr %22, i32 0, i32 7
  %24 = load i32, ptr %23, align 8
  store i32 %24, ptr %4, align 4
  br label %46

25:                                               ; preds = %9
  %26 = load ptr, ptr %3, align 8
  %27 = getelementptr inbounds nuw %struct.OpExpr, ptr %26, i32 0, i32 6
  %28 = load i32, ptr %27, align 8
  store i32 %28, ptr %4, align 4
  br label %46

29:                                               ; preds = %9
  %30 = load ptr, ptr %3, align 8
  %31 = getelementptr inbounds nuw %struct.OpExpr, ptr %30, i32 0, i32 6
  %32 = load i32, ptr %31, align 8
  store i32 %32, ptr %4, align 4
  br label %46

33:                                               ; preds = %9
  %34 = load ptr, ptr %3, align 8
  %35 = getelementptr inbounds nuw %struct.OpExpr, ptr %34, i32 0, i32 6
  %36 = load i32, ptr %35, align 8
  store i32 %36, ptr %4, align 4
  br label %46

37:                                               ; preds = %9
  %38 = load ptr, ptr %3, align 8
  %39 = getelementptr inbounds nuw %struct.ScalarArrayOpExpr, ptr %38, i32 0, i32 6
  %40 = load i32, ptr %39, align 8
  store i32 %40, ptr %4, align 4
  br label %46

41:                                               ; preds = %9
  %42 = load ptr, ptr %3, align 8
  %43 = getelementptr inbounds nuw %struct.MinMaxExpr, ptr %42, i32 0, i32 3
  %44 = load i32, ptr %43, align 4
  store i32 %44, ptr %4, align 4
  br label %46

45:                                               ; preds = %9
  store i32 0, ptr %4, align 4
  br label %46

46:                                               ; preds = %45, %41, %37, %33, %29, %25, %21, %17, %13
  %47 = load i32, ptr %4, align 4
  store i32 %47, ptr %2, align 4
  store i32 1, ptr %5, align 4
  br label %48

48:                                               ; preds = %46, %8
  call void @llvm.lifetime.end.p0(i64 4, ptr %4) #7
  %49 = load i32, ptr %2, align 4
  ret i32 %49
}