; Function Attrs: mustprogress nofree norecurse nosync nounwind willreturn memory(argmem: read) uwtable
define dso_local i32 @exprInputCollation(ptr noundef readonly captures(address_is_null) %0) local_unnamed_addr #6 {
  %.not = icmp eq ptr %0, null
  br i1 %.not, label %28, label %2

2:                                                ; preds = %1
  %3 = load i32, ptr %0, align 4
  switch i32 %3, label %28 [
    i32 9, label %4
    i32 11, label %7
    i32 15, label %10
    i32 17, label %13
    i32 18, label %16
    i32 19, label %19
    i32 20, label %22
    i32 39, label %25
  ]

4:                                                ; preds = %2
  %5 = getelementptr inbounds nuw i8, ptr %0, i64 16
  %6 = load i32, ptr %5, align 8
  br label %28

7:                                                ; preds = %2
  %8 = getelementptr inbounds nuw i8, ptr %0, i64 16
  %9 = load i32, ptr %8, align 8
  br label %28

10:                                               ; preds = %2
  %11 = getelementptr inbounds nuw i8, ptr %0, i64 24
  %12 = load i32, ptr %11, align 8
  br label %28

13:                                               ; preds = %2
  %14 = getelementptr inbounds nuw i8, ptr %0, i64 24
  %15 = load i32, ptr %14, align 8
  br label %28

16:                                               ; preds = %2
  %17 = getelementptr inbounds nuw i8, ptr %0, i64 24
  %18 = load i32, ptr %17, align 8
  br label %28

19:                                               ; preds = %2
  %20 = getelementptr inbounds nuw i8, ptr %0, i64 24
  %21 = load i32, ptr %20, align 8
  br label %28

22:                                               ; preds = %2
  %23 = getelementptr inbounds nuw i8, ptr %0, i64 24
  %24 = load i32, ptr %23, align 8
  br label %28

25:                                               ; preds = %2
  %26 = getelementptr inbounds nuw i8, ptr %0, i64 12
  %27 = load i32, ptr %26, align 4
  br label %28

28:                                               ; preds = %4, %7, %10, %13, %16, %19, %22, %25, %2, %1
  %.011 = phi i32 [ 0, %1 ], [ %27, %25 ], [ %24, %22 ], [ %21, %19 ], [ %18, %16 ], [ %15, %13 ], [ %12, %10 ], [ %9, %7 ], [ %6, %4 ], [ 0, %2 ]
  ret i32 %.011
}